; Function Attrs: mustprogress nofree norecurse nosync nounwind memory(read, argmem: readwrite, inaccessiblemem: none) uwtable
define hidden void @_ZN4cvc58internal6theory5arith6linear14ArithVariables12var_iteratorC2EPKNS0_8DenseMapINS4_7VarInfoEEEN9__gnu_cxx17__normal_iteratorIPKjSt6vectorIjSaIjEEEE(ptr nocapture noundef nonnull writeonly align 8 dereferenceable(16) %this, ptr noundef %vars, ptr %ci.coerce) unnamed_addr #9 align 2 {
entry:
  store ptr %vars, ptr %this, align 8
  %d_wrapped = getelementptr inbounds i8, ptr %this, i64 8
  store ptr %ci.coerce, ptr %d_wrapped, align 8
  %_M_finish.i.i.i = getelementptr inbounds i8, ptr %vars, i64 8
  %0 = load ptr, ptr %_M_finish.i.i.i, align 8
  %cmp.i.not3.i = icmp eq ptr %0, %ci.coerce
  br i1 %cmp.i.not3.i, label %_ZN4cvc58internal6theory5arith6linear14ArithVariables12var_iterator15nextInitializedEv.exit, label %land.rhs.lr.ph.i

land.rhs.lr.ph.i:                                 ; preds = %entry
  %d_image.i.i = getelementptr inbounds i8, ptr %vars, i64 48
  %1 = load i32, ptr @_ZN4cvc58internal6theory5arith6linear17ARITHVAR_SENTINELE, align 4
  br label %land.rhs.i

land.rhs.i:                                       ; preds = %while.body.i, %land.rhs.lr.ph.i
  %incdec.ptr.i24.i = phi ptr [ %ci.coerce, %land.rhs.lr.ph.i ], [ %incdec.ptr.i.i, %while.body.i ]
  %2 = load i32, ptr %incdec.ptr.i24.i, align 4
  %conv.i.i = zext i32 %2 to i64
  %3 = load ptr, ptr %d_image.i.i, align 8
  %add.ptr.i.i.i = getelementptr inbounds %"class.cvc5::internal::theory::arith::linear::ArithVariables::VarInfo", ptr %3, i64 %conv.i.i
  %4 = load i32, ptr %add.ptr.i.i.i, align 8
  %cmp.i1.not.i = icmp eq i32 %4, %1
  br i1 %cmp.i1.not.i, label %while.body.i, label %_ZN4cvc58internal6theory5arith6linear14ArithVariables12var_iterator15nextInitializedEv.exit

while.body.i:                                     ; preds = %land.rhs.i
  %incdec.ptr.i.i = getelementptr inbounds i8, ptr %incdec.ptr.i24.i, i64 4
  store ptr %incdec.ptr.i.i, ptr %d_wrapped, align 8
  %cmp.i.not.i = icmp eq ptr %incdec.ptr.i.i, %0
  br i1 %cmp.i.not.i, label %_ZN4cvc58internal6theory5arith6linear14ArithVariables12var_iterator15nextInitializedEv.exit, label %land.rhs.i, !llvm.loop !13

_ZN4cvc58internal6theory5arith6linear14ArithVariables12var_iterator15nextInitializedEv.exit: ; preds = %land.rhs.i, %while.body.i, %entry
  ret void
}